---
triple:          'arm64-apple-darwin'
binary-path:     SLAM
relocations:
  - { offsetInCU: 0x3F, offset: 0x3F, size: 0x8, addend: 0x0, symName: _ctrl_c_pressed, symObjAddr: 0x26470, symBinAddr: 0x100014000, symSize: 0x0 }
  - { offsetInCU: 0x4761, offset: 0x4761, size: 0x8, addend: 0x0, symName: __ZNSt3__124__put_character_sequenceB7v160006IcNS_11char_traitsIcEEEERNS_13basic_ostreamIT_T0_EES7_PKS4_m, symObjAddr: 0x1114, symBinAddr: 0x100002054, symSize: 0x1EC }
  - { offsetInCU: 0x62B8, offset: 0x62B8, size: 0x8, addend: 0x0, symName: __ZNSt3__1lsB7v160006INS_11char_traitsIcEEEERNS_13basic_ostreamIcT_EES6_PKc, symObjAddr: 0x200, symBinAddr: 0x100001140, symSize: 0x48 }
  - { offsetInCU: 0x62FE, offset: 0x62FE, size: 0x8, addend: 0x0, symName: __ZNSt3__14endlB7v160006IcNS_11char_traitsIcEEEERNS_13basic_ostreamIT_T0_EES7_, symObjAddr: 0x274, symBinAddr: 0x1000011B4, symSize: 0x58 }
  - { offsetInCU: 0x673B, offset: 0x673B, size: 0x8, addend: 0x0, symName: __ZNSt3__122__libcpp_thread_createB7v160006EPP17_opaque_pthread_tPFPvS3_ES3_, symObjAddr: 0x4C8, symBinAddr: 0x100001408, symSize: 0x38 }
  - { offsetInCU: 0x6787, offset: 0x6787, size: 0x8, addend: 0x0, symName: __ZNSt3__114__thread_proxyB7v160006INS_5tupleIJNS_10unique_ptrINS_15__thread_structENS_14default_deleteIS3_EEEEMN4SLAM5LidarEFvvEPS8_EEEEEPvSD_, symObjAddr: 0x500, symBinAddr: 0x100001440, symSize: 0x90 }
  - { offsetInCU: 0x68ED, offset: 0x68ED, size: 0x8, addend: 0x0, symName: __ZNSt3__13getB7v160006ILm0EJNS_10unique_ptrINS_15__thread_structENS_14default_deleteIS2_EEEEMN4SLAM5LidarEFvvEPS7_EEERNS_13tuple_elementIXT_ENS_5tupleIJDpT0_EEEE4typeERSF_, symObjAddr: 0xC10, symBinAddr: 0x100001B50, symSize: 0x24 }
  - { offsetInCU: 0x693A, offset: 0x693A, size: 0x8, addend: 0x0, symName: __ZNSt3__116__thread_executeB7v160006INS_10unique_ptrINS_15__thread_structENS_14default_deleteIS2_EEEEMN4SLAM5LidarEFvvEJPS7_EJLm2EEEEvRNS_5tupleIJT_T0_DpT1_EEENS_15__tuple_indicesIJXspT2_EEEE, symObjAddr: 0xC34, symBinAddr: 0x100001B74, symSize: 0x3C }
  - { offsetInCU: 0x6998, offset: 0x6998, size: 0x8, addend: 0x0, symName: __ZNSt3__116__libcpp_tls_setB7v160006EmPv, symObjAddr: 0xC70, symBinAddr: 0x100001BB0, symSize: 0x2C }
  - { offsetInCU: 0x69D5, offset: 0x69D5, size: 0x8, addend: 0x0, symName: __ZNSt3__18__invokeB7v160006IMN4SLAM5LidarEFvvEPS2_JEvEEDTcldsdeclsr3stdE7declvalIT0_EEclsr3stdE7declvalIT_EEspclsr3stdE7declvalIT1_EEEEOS7_OS6_DpOS8_, symObjAddr: 0xCB0, symBinAddr: 0x100001BF0, symSize: 0x80 }
  - { offsetInCU: 0x6A26, offset: 0x6A26, size: 0x8, addend: 0x0, symName: __ZNSt3__13getB7v160006ILm1EJNS_10unique_ptrINS_15__thread_structENS_14default_deleteIS2_EEEEMN4SLAM5LidarEFvvEPS7_EEERNS_13tuple_elementIXT_ENS_5tupleIJDpT0_EEEE4typeERSF_, symObjAddr: 0xD30, symBinAddr: 0x100001C70, symSize: 0x28 }
  - { offsetInCU: 0x6A73, offset: 0x6A73, size: 0x8, addend: 0x0, symName: __ZNSt3__13getB7v160006ILm2EJNS_10unique_ptrINS_15__thread_structENS_14default_deleteIS2_EEEEMN4SLAM5LidarEFvvEPS7_EEERNS_13tuple_elementIXT_ENS_5tupleIJDpT0_EEEE4typeERSF_, symObjAddr: 0xD58, symBinAddr: 0x100001C98, symSize: 0x28 }
  - { offsetInCU: 0x6AC0, offset: 0x6AC0, size: 0x8, addend: 0x0, symName: __ZNSt3__116__pad_and_outputB7v160006IcNS_11char_traitsIcEEEENS_19ostreambuf_iteratorIT_T0_EES6_PKS4_S8_S8_RNS_8ios_baseES4_, symObjAddr: 0x1350, symBinAddr: 0x100002290, symSize: 0x240 }
  - { offsetInCU: 0x6B8F, offset: 0x6B8F, size: 0x8, addend: 0x0, symName: __ZNSt3__119__debug_db_insert_cB7v160006INS_12basic_stringIcNS_11char_traitsIcEENS_9allocatorIcEEEEEEvPT_, symObjAddr: 0x1804, symBinAddr: 0x100002744, symSize: 0x10 }
  - { offsetInCU: 0x6BC0, offset: 0x6BC0, size: 0x8, addend: 0x0, symName: __ZNSt3__112__to_addressB7v160006IcEEPT_S2_, symObjAddr: 0x18D0, symBinAddr: 0x100002810, symSize: 0x14 }
  - { offsetInCU: 0x6BF5, offset: 0x6BF5, size: 0x8, addend: 0x0, symName: __ZNSt3__19use_facetB7v160006INS_5ctypeIcEEEERKT_RKNS_6localeE, symObjAddr: 0x1B88, symBinAddr: 0x100002AC8, symSize: 0x2C }
  - { offsetInCU: 0x70C4, offset: 0x70C4, size: 0x8, addend: 0x0, symName: __ZNSt3__118__constexpr_strlenB7v160006EPKc, symObjAddr: 0x1C20, symBinAddr: 0x100002B60, symSize: 0x24 }
  - { offsetInCU: 0xA29F, offset: 0xA29F, size: 0x8, addend: 0x0, symName: __Z5ctrlci, symObjAddr: 0x0, symBinAddr: 0x100000F40, symSize: 0x1C }
  - { offsetInCU: 0xA2C5, offset: 0xA2C5, size: 0x8, addend: 0x0, symName: _main, symObjAddr: 0x1C, symBinAddr: 0x100000F5C, symSize: 0x1A8 }
  - { offsetInCU: 0xA3DB, offset: 0xA3DB, size: 0x8, addend: 0x0, symName: __ZNSt3__16threadC1IMN4SLAM5LidarEFvvEJRPS3_EvEEOT_DpOT0_, symObjAddr: 0x1C4, symBinAddr: 0x100001104, symSize: 0x3C }
  - { offsetInCU: 0xA438, offset: 0xA438, size: 0x8, addend: 0x0, symName: __ZNSt3__113basic_ostreamIcNS_11char_traitsIcEEElsB7v160006EPFRS3_S4_E, symObjAddr: 0x248, symBinAddr: 0x100001188, symSize: 0x2C }
  - { offsetInCU: 0xA46C, offset: 0xA46C, size: 0x8, addend: 0x0, symName: __ZNSt3__16threadC2IMN4SLAM5LidarEFvvEJRPS3_EvEEOT_DpOT0_, symObjAddr: 0x2CC, symBinAddr: 0x10000120C, symSize: 0x150 }
  - { offsetInCU: 0xA4FC, offset: 0xA4FC, size: 0x8, addend: 0x0, symName: __ZNSt3__110unique_ptrINS_15__thread_structENS_14default_deleteIS1_EEEC1B7v160006ILb1EvEEPS1_, symObjAddr: 0x41C, symBinAddr: 0x10000135C, symSize: 0x34 }
  - { offsetInCU: 0xA53F, offset: 0xA53F, size: 0x8, addend: 0x0, symName: __ZNSt3__15tupleIJNS_10unique_ptrINS_15__thread_structENS_14default_deleteIS2_EEEEMN4SLAM5LidarEFvvEPS7_EEC1B7v160006IJS5_S9_RSA_ELi0EEEDpOT_, symObjAddr: 0x450, symBinAddr: 0x100001390, symSize: 0x44 }
  - { offsetInCU: 0xA642, offset: 0xA642, size: 0x8, addend: 0x0, symName: __ZNSt3__110unique_ptrINS_5tupleIJNS0_INS_15__thread_structENS_14default_deleteIS2_EEEEMN4SLAM5LidarEFvvEPS7_EEENS3_ISB_EEEC1B7v160006ILb1EvEEPSB_, symObjAddr: 0x494, symBinAddr: 0x1000013D4, symSize: 0x34 }
  - { offsetInCU: 0xA685, offset: 0xA685, size: 0x8, addend: 0x0, symName: __ZNKSt3__110unique_ptrINS_5tupleIJNS0_INS_15__thread_structENS_14default_deleteIS2_EEEEMN4SLAM5LidarEFvvEPS7_EEENS3_ISB_EEE3getB7v160006Ev, symObjAddr: 0x590, symBinAddr: 0x1000014D0, symSize: 0x28 }
  - { offsetInCU: 0xA6AB, offset: 0xA6AB, size: 0x8, addend: 0x0, symName: __ZNSt3__110unique_ptrINS_5tupleIJNS0_INS_15__thread_structENS_14default_deleteIS2_EEEEMN4SLAM5LidarEFvvEPS7_EEENS3_ISB_EEE7releaseB7v160006Ev, symObjAddr: 0x5B8, symBinAddr: 0x1000014F8, symSize: 0x44 }
  - { offsetInCU: 0xA6E0, offset: 0xA6E0, size: 0x8, addend: 0x0, symName: __ZNSt3__110unique_ptrINS_5tupleIJNS0_INS_15__thread_structENS_14default_deleteIS2_EEEEMN4SLAM5LidarEFvvEPS7_EEENS3_ISB_EEED1B7v160006Ev, symObjAddr: 0x5FC, symBinAddr: 0x10000153C, symSize: 0x2C }
  - { offsetInCU: 0xA70A, offset: 0xA70A, size: 0x8, addend: 0x0, symName: __ZNSt3__110unique_ptrINS_15__thread_structENS_14default_deleteIS1_EEED1B7v160006Ev, symObjAddr: 0x628, symBinAddr: 0x100001568, symSize: 0x2C }
  - { offsetInCU: 0xA734, offset: 0xA734, size: 0x8, addend: 0x0, symName: __ZNSt3__110unique_ptrINS_15__thread_structENS_14default_deleteIS1_EEEC2B7v160006ILb1EvEEPS1_, symObjAddr: 0x654, symBinAddr: 0x100001594, symSize: 0x44 }
  - { offsetInCU: 0xA77C, offset: 0xA77C, size: 0x8, addend: 0x0, symName: __ZNSt3__117__compressed_pairIPNS_15__thread_structENS_14default_deleteIS1_EEEC1B7v160006IRS2_NS_16__value_init_tagEEEOT_OT0_, symObjAddr: 0x698, symBinAddr: 0x1000015D8, symSize: 0x3C }
  - { offsetInCU: 0xA7D4, offset: 0xA7D4, size: 0x8, addend: 0x0, symName: __ZNSt3__117__compressed_pairIPNS_15__thread_structENS_14default_deleteIS1_EEEC2B7v160006IRS2_NS_16__value_init_tagEEEOT_OT0_, symObjAddr: 0x6E0, symBinAddr: 0x100001620, symSize: 0x40 }
  - { offsetInCU: 0xA82C, offset: 0xA82C, size: 0x8, addend: 0x0, symName: __ZNSt3__122__compressed_pair_elemIPNS_15__thread_structELi0ELb0EEC2B7v160006IRS2_vEEOT_, symObjAddr: 0x720, symBinAddr: 0x100001660, symSize: 0x24 }
  - { offsetInCU: 0xA86E, offset: 0xA86E, size: 0x8, addend: 0x0, symName: __ZNSt3__122__compressed_pair_elemINS_14default_deleteINS_15__thread_structEEELi1ELb1EEC2B7v160006ENS_16__value_init_tagE, symObjAddr: 0x744, symBinAddr: 0x100001684, symSize: 0x14 }
  - { offsetInCU: 0xA8A3, offset: 0xA8A3, size: 0x8, addend: 0x0, symName: __ZNSt3__15tupleIJNS_10unique_ptrINS_15__thread_structENS_14default_deleteIS2_EEEEMN4SLAM5LidarEFvvEPS7_EEC2B7v160006IJS5_S9_RSA_ELi0EEEDpOT_, symObjAddr: 0x758, symBinAddr: 0x100001698, symSize: 0x44 }
  - { offsetInCU: 0xA915, offset: 0xA915, size: 0x8, addend: 0x0, symName: __ZNSt3__112__tuple_implINS_15__tuple_indicesIJLm0ELm1ELm2EEEEJNS_10unique_ptrINS_15__thread_structENS_14default_deleteIS4_EEEEMN4SLAM5LidarEFvvEPS9_EEC1B7v160006IJLm0ELm1ELm2EEJS7_SB_SC_EJEJEJS7_SB_RSC_EEENS1_IJXspT_EEEENS_13__tuple_typesIJDpT0_EEENS1_IJXspT1_EEEENSH_IJDpT2_EEEDpOT3_, symObjAddr: 0x79C, symBinAddr: 0x1000016DC, symSize: 0x44 }
  - { offsetInCU: 0xA9E4, offset: 0xA9E4, size: 0x8, addend: 0x0, symName: __ZNSt3__112__tuple_implINS_15__tuple_indicesIJLm0ELm1ELm2EEEEJNS_10unique_ptrINS_15__thread_structENS_14default_deleteIS4_EEEEMN4SLAM5LidarEFvvEPS9_EEC2B7v160006IJLm0ELm1ELm2EEJS7_SB_SC_EJEJEJS7_SB_RSC_EEENS1_IJXspT_EEEENS_13__tuple_typesIJDpT0_EEENS1_IJXspT1_EEEENSH_IJDpT2_EEEDpOT3_, symObjAddr: 0x7E0, symBinAddr: 0x100001720, symSize: 0x5C }
  - { offsetInCU: 0xAAB3, offset: 0xAAB3, size: 0x8, addend: 0x0, symName: __ZNSt3__112__tuple_leafILm0ENS_10unique_ptrINS_15__thread_structENS_14default_deleteIS2_EEEELb0EEC2B7v160006IS5_vEEOT_, symObjAddr: 0x83C, symBinAddr: 0x10000177C, symSize: 0x34 }
  - { offsetInCU: 0xAAF6, offset: 0xAAF6, size: 0x8, addend: 0x0, symName: __ZNSt3__112__tuple_leafILm1EMN4SLAM5LidarEFvvELb0EEC2B7v160006IS4_vEEOT_, symObjAddr: 0x870, symBinAddr: 0x1000017B0, symSize: 0x2C }
  - { offsetInCU: 0xAB39, offset: 0xAB39, size: 0x8, addend: 0x0, symName: __ZNSt3__112__tuple_leafILm2EPN4SLAM5LidarELb0EEC2B7v160006IRS3_vEEOT_, symObjAddr: 0x89C, symBinAddr: 0x1000017DC, symSize: 0x24 }
  - { offsetInCU: 0xAB7C, offset: 0xAB7C, size: 0x8, addend: 0x0, symName: __ZNSt3__110unique_ptrINS_15__thread_structENS_14default_deleteIS1_EEEC1B7v160006EOS4_, symObjAddr: 0x8C0, symBinAddr: 0x100001800, symSize: 0x34 }
  - { offsetInCU: 0xABB4, offset: 0xABB4, size: 0x8, addend: 0x0, symName: __ZNSt3__110unique_ptrINS_15__thread_structENS_14default_deleteIS1_EEEC2B7v160006EOS4_, symObjAddr: 0x8F4, symBinAddr: 0x100001834, symSize: 0x60 }
  - { offsetInCU: 0xABEC, offset: 0xABEC, size: 0x8, addend: 0x0, symName: __ZNSt3__110unique_ptrINS_15__thread_structENS_14default_deleteIS1_EEE7releaseB7v160006Ev, symObjAddr: 0x954, symBinAddr: 0x100001894, symSize: 0x44 }
  - { offsetInCU: 0xAC21, offset: 0xAC21, size: 0x8, addend: 0x0, symName: __ZNSt3__110unique_ptrINS_15__thread_structENS_14default_deleteIS1_EEE11get_deleterB7v160006Ev, symObjAddr: 0x998, symBinAddr: 0x1000018D8, symSize: 0x24 }
  - { offsetInCU: 0xAC51, offset: 0xAC51, size: 0x8, addend: 0x0, symName: __ZNSt3__117__compressed_pairIPNS_15__thread_structENS_14default_deleteIS1_EEEC1B7v160006IS2_S4_EEOT_OT0_, symObjAddr: 0x9BC, symBinAddr: 0x1000018FC, symSize: 0x3C }
  - { offsetInCU: 0xACA9, offset: 0xACA9, size: 0x8, addend: 0x0, symName: __ZNSt3__117__compressed_pairIPNS_15__thread_structENS_14default_deleteIS1_EEE5firstB7v160006Ev, symObjAddr: 0x9F8, symBinAddr: 0x100001938, symSize: 0x24 }
  - { offsetInCU: 0xACCF, offset: 0xACCF, size: 0x8, addend: 0x0, symName: __ZNSt3__122__compressed_pair_elemIPNS_15__thread_structELi0ELb0EE5__getB7v160006Ev, symObjAddr: 0xA1C, symBinAddr: 0x10000195C, symSize: 0x14 }
  - { offsetInCU: 0xACF5, offset: 0xACF5, size: 0x8, addend: 0x0, symName: __ZNSt3__117__compressed_pairIPNS_15__thread_structENS_14default_deleteIS1_EEE6secondB7v160006Ev, symObjAddr: 0xA30, symBinAddr: 0x100001970, symSize: 0x24 }
  - { offsetInCU: 0xAD1B, offset: 0xAD1B, size: 0x8, addend: 0x0, symName: __ZNSt3__122__compressed_pair_elemINS_14default_deleteINS_15__thread_structEEELi1ELb1EE5__getB7v160006Ev, symObjAddr: 0xA54, symBinAddr: 0x100001994, symSize: 0x14 }
  - { offsetInCU: 0xAD41, offset: 0xAD41, size: 0x8, addend: 0x0, symName: __ZNSt3__117__compressed_pairIPNS_15__thread_structENS_14default_deleteIS1_EEEC2B7v160006IS2_S4_EEOT_OT0_, symObjAddr: 0xA68, symBinAddr: 0x1000019A8, symSize: 0x44 }
  - { offsetInCU: 0xAD99, offset: 0xAD99, size: 0x8, addend: 0x0, symName: __ZNSt3__122__compressed_pair_elemIPNS_15__thread_structELi0ELb0EEC2B7v160006IS2_vEEOT_, symObjAddr: 0xAAC, symBinAddr: 0x1000019EC, symSize: 0x24 }
  - { offsetInCU: 0xADDB, offset: 0xADDB, size: 0x8, addend: 0x0, symName: __ZNSt3__122__compressed_pair_elemINS_14default_deleteINS_15__thread_structEEELi1ELb1EEC2B7v160006IS3_vEEOT_, symObjAddr: 0xAD0, symBinAddr: 0x100001A10, symSize: 0x18 }
  - { offsetInCU: 0xAE1D, offset: 0xAE1D, size: 0x8, addend: 0x0, symName: __ZNSt3__110unique_ptrINS_5tupleIJNS0_INS_15__thread_structENS_14default_deleteIS2_EEEEMN4SLAM5LidarEFvvEPS7_EEENS3_ISB_EEEC2B7v160006ILb1EvEEPSB_, symObjAddr: 0xAE8, symBinAddr: 0x100001A28, symSize: 0x44 }
  - { offsetInCU: 0xAE60, offset: 0xAE60, size: 0x8, addend: 0x0, symName: __ZNSt3__117__compressed_pairIPNS_5tupleIJNS_10unique_ptrINS_15__thread_structENS_14default_deleteIS3_EEEEMN4SLAM5LidarEFvvEPS8_EEENS4_ISC_EEEC1B7v160006IRSD_NS_16__value_init_tagEEEOT_OT0_, symObjAddr: 0xB2C, symBinAddr: 0x100001A6C, symSize: 0x3C }
  - { offsetInCU: 0xAEB8, offset: 0xAEB8, size: 0x8, addend: 0x0, symName: __ZNSt3__117__compressed_pairIPNS_5tupleIJNS_10unique_ptrINS_15__thread_structENS_14default_deleteIS3_EEEEMN4SLAM5LidarEFvvEPS8_EEENS4_ISC_EEEC2B7v160006IRSD_NS_16__value_init_tagEEEOT_OT0_, symObjAddr: 0xB68, symBinAddr: 0x100001AA8, symSize: 0x40 }
  - { offsetInCU: 0xAF10, offset: 0xAF10, size: 0x8, addend: 0x0, symName: __ZNSt3__122__compressed_pair_elemIPNS_5tupleIJNS_10unique_ptrINS_15__thread_structENS_14default_deleteIS3_EEEEMN4SLAM5LidarEFvvEPS8_EEELi0ELb0EEC2B7v160006IRSD_vEEOT_, symObjAddr: 0xBA8, symBinAddr: 0x100001AE8, symSize: 0x24 }
  - { offsetInCU: 0xAF52, offset: 0xAF52, size: 0x8, addend: 0x0, symName: __ZNSt3__122__compressed_pair_elemINS_14default_deleteINS_5tupleIJNS_10unique_ptrINS_15__thread_structENS1_IS4_EEEEMN4SLAM5LidarEFvvEPS8_EEEEELi1ELb1EEC2B7v160006ENS_16__value_init_tagE, symObjAddr: 0xBCC, symBinAddr: 0x100001B0C, symSize: 0x14 }
  - { offsetInCU: 0xAFB6, offset: 0xAFB6, size: 0x8, addend: 0x0, symName: __ZNSt3__121__thread_specific_ptrINS_15__thread_structEE11set_pointerEPS1_, symObjAddr: 0xBE0, symBinAddr: 0x100001B20, symSize: 0x30 }
  - { offsetInCU: 0xAFEB, offset: 0xAFEB, size: 0x8, addend: 0x0, symName: __ZNSt3__112__tuple_leafILm0ENS_10unique_ptrINS_15__thread_structENS_14default_deleteIS2_EEEELb0EE3getB7v160006Ev, symObjAddr: 0xC9C, symBinAddr: 0x100001BDC, symSize: 0x14 }
  - { offsetInCU: 0xB011, offset: 0xB011, size: 0x8, addend: 0x0, symName: __ZNSt3__112__tuple_leafILm1EMN4SLAM5LidarEFvvELb0EE3getB7v160006Ev, symObjAddr: 0xD80, symBinAddr: 0x100001CC0, symSize: 0x14 }
  - { offsetInCU: 0xB037, offset: 0xB037, size: 0x8, addend: 0x0, symName: __ZNSt3__112__tuple_leafILm2EPN4SLAM5LidarELb0EE3getB7v160006Ev, symObjAddr: 0xD94, symBinAddr: 0x100001CD4, symSize: 0x14 }
  - { offsetInCU: 0xB05D, offset: 0xB05D, size: 0x8, addend: 0x0, symName: __ZNKSt3__117__compressed_pairIPNS_5tupleIJNS_10unique_ptrINS_15__thread_structENS_14default_deleteIS3_EEEEMN4SLAM5LidarEFvvEPS8_EEENS4_ISC_EEE5firstB7v160006Ev, symObjAddr: 0xDA8, symBinAddr: 0x100001CE8, symSize: 0x24 }
  - { offsetInCU: 0xB083, offset: 0xB083, size: 0x8, addend: 0x0, symName: __ZNKSt3__122__compressed_pair_elemIPNS_5tupleIJNS_10unique_ptrINS_15__thread_structENS_14default_deleteIS3_EEEEMN4SLAM5LidarEFvvEPS8_EEELi0ELb0EE5__getB7v160006Ev, symObjAddr: 0xDCC, symBinAddr: 0x100001D0C, symSize: 0x14 }
  - { offsetInCU: 0xB0A9, offset: 0xB0A9, size: 0x8, addend: 0x0, symName: __ZNSt3__117__compressed_pairIPNS_5tupleIJNS_10unique_ptrINS_15__thread_structENS_14default_deleteIS3_EEEEMN4SLAM5LidarEFvvEPS8_EEENS4_ISC_EEE5firstB7v160006Ev, symObjAddr: 0xDE0, symBinAddr: 0x100001D20, symSize: 0x24 }
  - { offsetInCU: 0xB0CF, offset: 0xB0CF, size: 0x8, addend: 0x0, symName: __ZNSt3__122__compressed_pair_elemIPNS_5tupleIJNS_10unique_ptrINS_15__thread_structENS_14default_deleteIS3_EEEEMN4SLAM5LidarEFvvEPS8_EEELi0ELb0EE5__getB7v160006Ev, symObjAddr: 0xE04, symBinAddr: 0x100001D44, symSize: 0x14 }
  - { offsetInCU: 0xB0F5, offset: 0xB0F5, size: 0x8, addend: 0x0, symName: __ZNSt3__110unique_ptrINS_5tupleIJNS0_INS_15__thread_structENS_14default_deleteIS2_EEEEMN4SLAM5LidarEFvvEPS7_EEENS3_ISB_EEED2B7v160006Ev, symObjAddr: 0xE18, symBinAddr: 0x100001D58, symSize: 0x30 }
  - { offsetInCU: 0xB11F, offset: 0xB11F, size: 0x8, addend: 0x0, symName: __ZNSt3__110unique_ptrINS_5tupleIJNS0_INS_15__thread_structENS_14default_deleteIS2_EEEEMN4SLAM5LidarEFvvEPS7_EEENS3_ISB_EEE5resetB7v160006EPSB_, symObjAddr: 0xE48, symBinAddr: 0x100001D88, symSize: 0x78 }
  - { offsetInCU: 0xB163, offset: 0xB163, size: 0x8, addend: 0x0, symName: __ZNSt3__117__compressed_pairIPNS_5tupleIJNS_10unique_ptrINS_15__thread_structENS_14default_deleteIS3_EEEEMN4SLAM5LidarEFvvEPS8_EEENS4_ISC_EEE6secondB7v160006Ev, symObjAddr: 0xEC0, symBinAddr: 0x100001E00, symSize: 0x24 }
  - { offsetInCU: 0xB189, offset: 0xB189, size: 0x8, addend: 0x0, symName: __ZNKSt3__114default_deleteINS_5tupleIJNS_10unique_ptrINS_15__thread_structENS0_IS3_EEEEMN4SLAM5LidarEFvvEPS7_EEEEclB7v160006EPSB_, symObjAddr: 0xEE4, symBinAddr: 0x100001E24, symSize: 0x4C }
  - { offsetInCU: 0xB1BD, offset: 0xB1BD, size: 0x8, addend: 0x0, symName: __ZNSt3__122__compressed_pair_elemINS_14default_deleteINS_5tupleIJNS_10unique_ptrINS_15__thread_structENS1_IS4_EEEEMN4SLAM5LidarEFvvEPS8_EEEEELi1ELb1EE5__getB7v160006Ev, symObjAddr: 0xF30, symBinAddr: 0x100001E70, symSize: 0x14 }
  - { offsetInCU: 0xB1E3, offset: 0xB1E3, size: 0x8, addend: 0x0, symName: __ZNSt3__15tupleIJNS_10unique_ptrINS_15__thread_structENS_14default_deleteIS2_EEEEMN4SLAM5LidarEFvvEPS7_EED1Ev, symObjAddr: 0xF44, symBinAddr: 0x100001E84, symSize: 0x2C }
  - { offsetInCU: 0xB210, offset: 0xB210, size: 0x8, addend: 0x0, symName: __ZNSt3__15tupleIJNS_10unique_ptrINS_15__thread_structENS_14default_deleteIS2_EEEEMN4SLAM5LidarEFvvEPS7_EED2Ev, symObjAddr: 0xF70, symBinAddr: 0x100001EB0, symSize: 0x2C }
  - { offsetInCU: 0xB23D, offset: 0xB23D, size: 0x8, addend: 0x0, symName: __ZNSt3__112__tuple_implINS_15__tuple_indicesIJLm0ELm1ELm2EEEEJNS_10unique_ptrINS_15__thread_structENS_14default_deleteIS4_EEEEMN4SLAM5LidarEFvvEPS9_EED1Ev, symObjAddr: 0xF9C, symBinAddr: 0x100001EDC, symSize: 0x2C }
  - { offsetInCU: 0xB26A, offset: 0xB26A, size: 0x8, addend: 0x0, symName: __ZNSt3__112__tuple_implINS_15__tuple_indicesIJLm0ELm1ELm2EEEEJNS_10unique_ptrINS_15__thread_structENS_14default_deleteIS4_EEEEMN4SLAM5LidarEFvvEPS9_EED2Ev, symObjAddr: 0xFC8, symBinAddr: 0x100001F08, symSize: 0x2C }
  - { offsetInCU: 0xB297, offset: 0xB297, size: 0x8, addend: 0x0, symName: __ZNSt3__112__tuple_leafILm0ENS_10unique_ptrINS_15__thread_structENS_14default_deleteIS2_EEEELb0EED2Ev, symObjAddr: 0xFF4, symBinAddr: 0x100001F34, symSize: 0x2C }
  - { offsetInCU: 0xB2C4, offset: 0xB2C4, size: 0x8, addend: 0x0, symName: __ZNSt3__110unique_ptrINS_15__thread_structENS_14default_deleteIS1_EEED2B7v160006Ev, symObjAddr: 0x1020, symBinAddr: 0x100001F60, symSize: 0x30 }
  - { offsetInCU: 0xB2EE, offset: 0xB2EE, size: 0x8, addend: 0x0, symName: __ZNSt3__110unique_ptrINS_15__thread_structENS_14default_deleteIS1_EEE5resetB7v160006EPS1_, symObjAddr: 0x1050, symBinAddr: 0x100001F90, symSize: 0x78 }
  - { offsetInCU: 0xB332, offset: 0xB332, size: 0x8, addend: 0x0, symName: __ZNKSt3__114default_deleteINS_15__thread_structEEclB7v160006EPS1_, symObjAddr: 0x10C8, symBinAddr: 0x100002008, symSize: 0x4C }
  - { offsetInCU: 0xB366, offset: 0xB366, size: 0x8, addend: 0x0, symName: __ZNSt3__111char_traitsIcE6lengthEPKc, symObjAddr: 0x1300, symBinAddr: 0x100002240, symSize: 0x34 }
  - { offsetInCU: 0xB3A7, offset: 0xB3A7, size: 0x8, addend: 0x0, symName: __ZNKSt3__113basic_ostreamIcNS_11char_traitsIcEEE6sentrycvbB7v160006Ev, symObjAddr: 0x1334, symBinAddr: 0x100002274, symSize: 0x1C }
  - { offsetInCU: 0xB3CD, offset: 0xB3CD, size: 0x8, addend: 0x0, symName: __ZNSt3__119ostreambuf_iteratorIcNS_11char_traitsIcEEEC1B7v160006ERNS_13basic_ostreamIcS2_EE, symObjAddr: 0x1590, symBinAddr: 0x1000024D0, symSize: 0x34 }
  - { offsetInCU: 0xB405, offset: 0xB405, size: 0x8, addend: 0x0, symName: __ZNKSt3__18ios_base5flagsB7v160006Ev, symObjAddr: 0x15C4, symBinAddr: 0x100002504, symSize: 0x18 }
  - { offsetInCU: 0xB42D, offset: 0xB42D, size: 0x8, addend: 0x0, symName: __ZNKSt3__19basic_iosIcNS_11char_traitsIcEEE4fillB7v160006Ev, symObjAddr: 0x15DC, symBinAddr: 0x10000251C, symSize: 0x64 }
  - { offsetInCU: 0xB455, offset: 0xB455, size: 0x8, addend: 0x0, symName: __ZNKSt3__119ostreambuf_iteratorIcNS_11char_traitsIcEEE6failedB7v160006Ev, symObjAddr: 0x1640, symBinAddr: 0x100002580, symSize: 0x24 }
  - { offsetInCU: 0xB47B, offset: 0xB47B, size: 0x8, addend: 0x0, symName: __ZNSt3__19basic_iosIcNS_11char_traitsIcEEE8setstateB7v160006Ej, symObjAddr: 0x1664, symBinAddr: 0x1000025A4, symSize: 0x2C }
  - { offsetInCU: 0xB4B0, offset: 0xB4B0, size: 0x8, addend: 0x0, symName: __ZNKSt3__18ios_base5widthB7v160006Ev, symObjAddr: 0x1690, symBinAddr: 0x1000025D0, symSize: 0x18 }
  - { offsetInCU: 0xB4D8, offset: 0xB4D8, size: 0x8, addend: 0x0, symName: __ZNSt3__115basic_streambufIcNS_11char_traitsIcEEE5sputnB7v160006EPKcl, symObjAddr: 0x16A8, symBinAddr: 0x1000025E8, symSize: 0x3C }
  - { offsetInCU: 0xB51A, offset: 0xB51A, size: 0x8, addend: 0x0, symName: __ZNSt3__112basic_stringIcNS_11char_traitsIcEENS_9allocatorIcEEEC1B7v160006Emc, symObjAddr: 0x16E4, symBinAddr: 0x100002624, symSize: 0x3C }
  - { offsetInCU: 0xB562, offset: 0xB562, size: 0x8, addend: 0x0, symName: __ZNSt3__112basic_stringIcNS_11char_traitsIcEENS_9allocatorIcEEE4dataB7v160006Ev, symObjAddr: 0x1720, symBinAddr: 0x100002660, symSize: 0x28 }
  - { offsetInCU: 0xB588, offset: 0xB588, size: 0x8, addend: 0x0, symName: __ZNSt3__18ios_base5widthB7v160006El, symObjAddr: 0x1748, symBinAddr: 0x100002688, symSize: 0x2C }
  - { offsetInCU: 0xB5CE, offset: 0xB5CE, size: 0x8, addend: 0x0, symName: __ZNSt3__112basic_stringIcNS_11char_traitsIcEENS_9allocatorIcEEEC2B7v160006Emc, symObjAddr: 0x1774, symBinAddr: 0x1000026B4, symSize: 0x54 }
  - { offsetInCU: 0xB61B, offset: 0xB61B, size: 0x8, addend: 0x0, symName: __ZNSt3__117__compressed_pairINS_12basic_stringIcNS_11char_traitsIcEENS_9allocatorIcEEE5__repES5_EC1B7v160006INS_18__default_init_tagESA_EEOT_OT0_, symObjAddr: 0x17C8, symBinAddr: 0x100002708, symSize: 0x3C }
  - { offsetInCU: 0xB673, offset: 0xB673, size: 0x8, addend: 0x0, symName: __ZNSt3__117__compressed_pairINS_12basic_stringIcNS_11char_traitsIcEENS_9allocatorIcEEE5__repES5_EC2B7v160006INS_18__default_init_tagESA_EEOT_OT0_, symObjAddr: 0x1814, symBinAddr: 0x100002754, symSize: 0x3C }
  - { offsetInCU: 0xB6CB, offset: 0xB6CB, size: 0x8, addend: 0x0, symName: __ZNSt3__122__compressed_pair_elemINS_12basic_stringIcNS_11char_traitsIcEENS_9allocatorIcEEE5__repELi0ELb0EEC2B7v160006ENS_18__default_init_tagE, symObjAddr: 0x1850, symBinAddr: 0x100002790, symSize: 0x14 }
  - { offsetInCU: 0xB700, offset: 0xB700, size: 0x8, addend: 0x0, symName: __ZNSt3__122__compressed_pair_elemINS_9allocatorIcEELi1ELb1EEC2B7v160006ENS_18__default_init_tagE, symObjAddr: 0x1864, symBinAddr: 0x1000027A4, symSize: 0x2C }
  - { offsetInCU: 0xB735, offset: 0xB735, size: 0x8, addend: 0x0, symName: __ZNSt3__19allocatorIcEC2B7v160006Ev, symObjAddr: 0x1890, symBinAddr: 0x1000027D0, symSize: 0x2C }
  - { offsetInCU: 0xB75F, offset: 0xB75F, size: 0x8, addend: 0x0, symName: __ZNSt3__116__non_trivial_ifILb1ENS_9allocatorIcEEEC2B7v160006Ev, symObjAddr: 0x18BC, symBinAddr: 0x1000027FC, symSize: 0x14 }
  - { offsetInCU: 0xB789, offset: 0xB789, size: 0x8, addend: 0x0, symName: __ZNSt3__112basic_stringIcNS_11char_traitsIcEENS_9allocatorIcEEE13__get_pointerB7v160006Ev, symObjAddr: 0x18E4, symBinAddr: 0x100002824, symSize: 0x54 }
  - { offsetInCU: 0xB7AF, offset: 0xB7AF, size: 0x8, addend: 0x0, symName: __ZNKSt3__112basic_stringIcNS_11char_traitsIcEENS_9allocatorIcEEE9__is_longB7v160006Ev, symObjAddr: 0x1938, symBinAddr: 0x100002878, symSize: 0x38 }
  - { offsetInCU: 0xB7D5, offset: 0xB7D5, size: 0x8, addend: 0x0, symName: __ZNSt3__112basic_stringIcNS_11char_traitsIcEENS_9allocatorIcEEE18__get_long_pointerB7v160006Ev, symObjAddr: 0x1970, symBinAddr: 0x1000028B0, symSize: 0x28 }
  - { offsetInCU: 0xB7FB, offset: 0xB7FB, size: 0x8, addend: 0x0, symName: __ZNSt3__112basic_stringIcNS_11char_traitsIcEENS_9allocatorIcEEE19__get_short_pointerB7v160006Ev, symObjAddr: 0x1998, symBinAddr: 0x1000028D8, symSize: 0x28 }
  - { offsetInCU: 0xB821, offset: 0xB821, size: 0x8, addend: 0x0, symName: __ZNKSt3__117__compressed_pairINS_12basic_stringIcNS_11char_traitsIcEENS_9allocatorIcEEE5__repES5_E5firstB7v160006Ev, symObjAddr: 0x19C0, symBinAddr: 0x100002900, symSize: 0x24 }
  - { offsetInCU: 0xB847, offset: 0xB847, size: 0x8, addend: 0x0, symName: __ZNKSt3__122__compressed_pair_elemINS_12basic_stringIcNS_11char_traitsIcEENS_9allocatorIcEEE5__repELi0ELb0EE5__getB7v160006Ev, symObjAddr: 0x19E4, symBinAddr: 0x100002924, symSize: 0x14 }
  - { offsetInCU: 0xB86D, offset: 0xB86D, size: 0x8, addend: 0x0, symName: __ZNSt3__117__compressed_pairINS_12basic_stringIcNS_11char_traitsIcEENS_9allocatorIcEEE5__repES5_E5firstB7v160006Ev, symObjAddr: 0x19F8, symBinAddr: 0x100002938, symSize: 0x24 }
  - { offsetInCU: 0xB893, offset: 0xB893, size: 0x8, addend: 0x0, symName: __ZNSt3__122__compressed_pair_elemINS_12basic_stringIcNS_11char_traitsIcEENS_9allocatorIcEEE5__repELi0ELb0EE5__getB7v160006Ev, symObjAddr: 0x1A1C, symBinAddr: 0x10000295C, symSize: 0x14 }
  - { offsetInCU: 0xB8B9, offset: 0xB8B9, size: 0x8, addend: 0x0, symName: __ZNSt3__114pointer_traitsIPcE10pointer_toB7v160006ERc, symObjAddr: 0x1A30, symBinAddr: 0x100002970, symSize: 0x14 }
  - { offsetInCU: 0xB8DC, offset: 0xB8DC, size: 0x8, addend: 0x0, symName: __ZNSt3__119ostreambuf_iteratorIcNS_11char_traitsIcEEEC2B7v160006ERNS_13basic_ostreamIcS2_EE, symObjAddr: 0x1A44, symBinAddr: 0x100002984, symSize: 0x54 }
  - { offsetInCU: 0xB914, offset: 0xB914, size: 0x8, addend: 0x0, symName: __ZNKSt3__19basic_iosIcNS_11char_traitsIcEEE5rdbufB7v160006Ev, symObjAddr: 0x1A98, symBinAddr: 0x1000029D8, symSize: 0x24 }
  - { offsetInCU: 0xB93C, offset: 0xB93C, size: 0x8, addend: 0x0, symName: __ZNKSt3__18ios_base5rdbufB7v160006Ev, symObjAddr: 0x1ABC, symBinAddr: 0x1000029FC, symSize: 0x18 }
  - { offsetInCU: 0xB962, offset: 0xB962, size: 0x8, addend: 0x0, symName: __ZNSt3__111char_traitsIcE11eq_int_typeEii, symObjAddr: 0x1AD4, symBinAddr: 0x100002A14, symSize: 0x28 }
  - { offsetInCU: 0xB993, offset: 0xB993, size: 0x8, addend: 0x0, symName: __ZNSt3__111char_traitsIcE3eofEv, symObjAddr: 0x1AFC, symBinAddr: 0x100002A3C, symSize: 0x8 }
  - { offsetInCU: 0xB9A7, offset: 0xB9A7, size: 0x8, addend: 0x0, symName: __ZNKSt3__19basic_iosIcNS_11char_traitsIcEEE5widenB7v160006Ec, symObjAddr: 0x1B04, symBinAddr: 0x100002A44, symSize: 0x84 }
  - { offsetInCU: 0xBA15, offset: 0xBA15, size: 0x8, addend: 0x0, symName: __ZNKSt3__15ctypeIcE5widenB7v160006Ec, symObjAddr: 0x1BB4, symBinAddr: 0x100002AF4, symSize: 0x38 }
  - { offsetInCU: 0xBA4A, offset: 0xBA4A, size: 0x8, addend: 0x0, symName: __ZNSt3__18ios_base8setstateB7v160006Ej, symObjAddr: 0x1BEC, symBinAddr: 0x100002B2C, symSize: 0x34 }
  - { offsetInCU: 0x26, offset: 0xBB5D, size: 0x8, addend: 0x0, symName: __ZN4SLAM3MapC2Ev, symObjAddr: 0x0, symBinAddr: 0x100002B84, symSize: 0x38 }
  - { offsetInCU: 0x29BA, offset: 0xE4F1, size: 0x8, addend: 0x0, symName: __ZN4SLAM3MapC2Ev, symObjAddr: 0x0, symBinAddr: 0x100002B84, symSize: 0x38 }
  - { offsetInCU: 0x29E6, offset: 0xE51D, size: 0x8, addend: 0x0, symName: __ZN4SLAM3Map8resetMapEv, symObjAddr: 0x38, symBinAddr: 0x100002BBC, symSize: 0x58 }
  - { offsetInCU: 0x2A2C, offset: 0xE563, size: 0x8, addend: 0x0, symName: __ZN4SLAM3MapC1Ev, symObjAddr: 0x90, symBinAddr: 0x100002C14, symSize: 0x2C }
  - { offsetInCU: 0x2A58, offset: 0xE58F, size: 0x8, addend: 0x0, symName: __ZN4SLAM3MapD2Ev, symObjAddr: 0xBC, symBinAddr: 0x100002C40, symSize: 0x14 }
  - { offsetInCU: 0x2A84, offset: 0xE5BB, size: 0x8, addend: 0x0, symName: __ZN4SLAM3MapD1Ev, symObjAddr: 0xD0, symBinAddr: 0x100002C54, symSize: 0x2C }
  - { offsetInCU: 0x2AB0, offset: 0xE5E7, size: 0x8, addend: 0x0, symName: __ZN4SLAM3Map11getMapPointEfRf, symObjAddr: 0xFC, symBinAddr: 0x100002C80, symSize: 0x44 }
  - { offsetInCU: 0x2AF4, offset: 0xE62B, size: 0x8, addend: 0x0, symName: __ZN4SLAM3Map12angleToIndexEf, symObjAddr: 0x140, symBinAddr: 0x100002CC4, symSize: 0x8C }
  - { offsetInCU: 0x2B2A, offset: 0xE661, size: 0x8, addend: 0x0, symName: __ZN4SLAM3Map11setMapPointEff, symObjAddr: 0x1CC, symBinAddr: 0x100002D50, symSize: 0x48 }
  - { offsetInCU: 0x52, offset: 0xE6FC, size: 0x8, addend: 0x0, symName: __ZL16measurementCount, symObjAddr: 0x1BBA8, symBinAddr: 0x100014008, symSize: 0x0 }
  - { offsetInCU: 0x4854, offset: 0x12EFE, size: 0x8, addend: 0x0, symName: __ZNSt3__1lsB7v160006IcNS_11char_traitsIcEENS_9allocatorIcEEEERNS_13basic_ostreamIT_T0_EES9_RKNS_12basic_stringIS6_S7_T1_EE, symObjAddr: 0x5BC, symBinAddr: 0x100003288, symSize: 0x4C }
  - { offsetInCU: 0x48B7, offset: 0x12F61, size: 0x8, addend: 0x0, symName: __ZNSt3__112__to_addressB7v160006IKcEEPT_S3_, symObjAddr: 0x6C8, symBinAddr: 0x100003394, symSize: 0x14 }
  - { offsetInCU: 0x697D, offset: 0x15027, size: 0x8, addend: 0x0, symName: __ZN4SLAM6MapperC2Ev, symObjAddr: 0x0, symBinAddr: 0x100002D98, symSize: 0x2C }
  - { offsetInCU: 0x69A9, offset: 0x15053, size: 0x8, addend: 0x0, symName: __ZN4SLAM6MapperC1Ev, symObjAddr: 0x2C, symBinAddr: 0x100002DC4, symSize: 0x2C }
  - { offsetInCU: 0x69D5, offset: 0x1507F, size: 0x8, addend: 0x0, symName: __ZN4SLAM6MapperD2Ev, symObjAddr: 0x58, symBinAddr: 0x100002DF0, symSize: 0x2C }
  - { offsetInCU: 0x6A01, offset: 0x150AB, size: 0x8, addend: 0x0, symName: __ZN4SLAM6MapperD1Ev, symObjAddr: 0x84, symBinAddr: 0x100002E1C, symSize: 0x2C }
  - { offsetInCU: 0x6A2D, offset: 0x150D7, size: 0x8, addend: 0x0, symName: __ZN4SLAM6Mapper5resetEv, symObjAddr: 0xB0, symBinAddr: 0x100002E48, symSize: 0x24 }
  - { offsetInCU: 0x6A55, offset: 0x150FF, size: 0x8, addend: 0x0, symName: __ZN4SLAM6Mapper22processMeasurementDataEPNS_15MeasurementNodeEj, symObjAddr: 0xD4, symBinAddr: 0x100002E6C, symSize: 0x2E8 }
  - { offsetInCU: 0x6BD5, offset: 0x1527F, size: 0x8, addend: 0x0, symName: __ZNSt3__118basic_stringstreamIcNS_11char_traitsIcEENS_9allocatorIcEEEC1B7v160006Ev, symObjAddr: 0x488, symBinAddr: 0x100003154, symSize: 0x104 }
  - { offsetInCU: 0x6BFF, offset: 0x152A9, size: 0x8, addend: 0x0, symName: __ZNKSt3__118basic_stringstreamIcNS_11char_traitsIcEENS_9allocatorIcEEE3strB7v160006Ev, symObjAddr: 0x58C, symBinAddr: 0x100003258, symSize: 0x30 }
  - { offsetInCU: 0x6C25, offset: 0x152CF, size: 0x8, addend: 0x0, symName: __ZNKSt3__112basic_stringIcNS_11char_traitsIcEENS_9allocatorIcEEE5c_strB7v160006Ev, symObjAddr: 0x608, symBinAddr: 0x1000032D4, symSize: 0x24 }
  - { offsetInCU: 0x6C50, offset: 0x152FA, size: 0x8, addend: 0x0, symName: __ZNSt3__118basic_stringstreamIcNS_11char_traitsIcEENS_9allocatorIcEEED1Ev, symObjAddr: 0x62C, symBinAddr: 0x1000032F8, symSize: 0x40 }
  - { offsetInCU: 0x6C7D, offset: 0x15327, size: 0x8, addend: 0x0, symName: __ZN4SLAM6Mapper11getMapPointEfRf, symObjAddr: 0x66C, symBinAddr: 0x100003338, symSize: 0x34 }
  - { offsetInCU: 0x6CC1, offset: 0x1536B, size: 0x8, addend: 0x0, symName: __ZNKSt3__112basic_stringIcNS_11char_traitsIcEENS_9allocatorIcEEE4dataB7v160006Ev, symObjAddr: 0x6A0, symBinAddr: 0x10000336C, symSize: 0x28 }
  - { offsetInCU: 0x6CE7, offset: 0x15391, size: 0x8, addend: 0x0, symName: __ZNKSt3__112basic_stringIcNS_11char_traitsIcEENS_9allocatorIcEEE13__get_pointerB7v160006Ev, symObjAddr: 0x6DC, symBinAddr: 0x1000033A8, symSize: 0x54 }
  - { offsetInCU: 0x6D0D, offset: 0x153B7, size: 0x8, addend: 0x0, symName: __ZNKSt3__112basic_stringIcNS_11char_traitsIcEENS_9allocatorIcEEE18__get_long_pointerB7v160006Ev, symObjAddr: 0x768, symBinAddr: 0x1000033FC, symSize: 0x28 }
  - { offsetInCU: 0x6D33, offset: 0x153DD, size: 0x8, addend: 0x0, symName: __ZNKSt3__112basic_stringIcNS_11char_traitsIcEENS_9allocatorIcEEE19__get_short_pointerB7v160006Ev, symObjAddr: 0x790, symBinAddr: 0x100003424, symSize: 0x28 }
  - { offsetInCU: 0x6D5A, offset: 0x15404, size: 0x8, addend: 0x0, symName: __ZNSt3__114pointer_traitsIPKcE10pointer_toB7v160006ERS1_, symObjAddr: 0x7F0, symBinAddr: 0x10000344C, symSize: 0x14 }
  - { offsetInCU: 0x6D7C, offset: 0x15426, size: 0x8, addend: 0x0, symName: __ZNSt3__118basic_stringstreamIcNS_11char_traitsIcEENS_9allocatorIcEEED2Ev, symObjAddr: 0x804, symBinAddr: 0x100003460, symSize: 0x6C }
  - { offsetInCU: 0x6DB7, offset: 0x15461, size: 0x8, addend: 0x0, symName: __ZThn16_NSt3__118basic_stringstreamIcNS_11char_traitsIcEENS_9allocatorIcEEED1Ev, symObjAddr: 0x870, symBinAddr: 0x1000034CC, symSize: 0x1C }
  - { offsetInCU: 0x6DCE, offset: 0x15478, size: 0x8, addend: 0x0, symName: __ZTv0_n24_NSt3__118basic_stringstreamIcNS_11char_traitsIcEENS_9allocatorIcEEED1Ev, symObjAddr: 0x88C, symBinAddr: 0x1000034E8, symSize: 0x28 }
  - { offsetInCU: 0x6DE9, offset: 0x15493, size: 0x8, addend: 0x0, symName: __ZNSt3__115basic_stringbufIcNS_11char_traitsIcEENS_9allocatorIcEEED1Ev, symObjAddr: 0x8B4, symBinAddr: 0x100003510, symSize: 0x2C }
  - { offsetInCU: 0x6E16, offset: 0x154C0, size: 0x8, addend: 0x0, symName: __ZNSt3__115basic_stringbufIcNS_11char_traitsIcEENS_9allocatorIcEEED2Ev, symObjAddr: 0x8E0, symBinAddr: 0x10000353C, symSize: 0x48 }
  - { offsetInCU: 0x6E61, offset: 0x1550B, size: 0x8, addend: 0x0, symName: __ZNSt3__19basic_iosIcNS_11char_traitsIcEEEC2B7v160006Ev, symObjAddr: 0x13F4, symBinAddr: 0x100003584, symSize: 0x44 }
  - { offsetInCU: 0x6E8B, offset: 0x15535, size: 0x8, addend: 0x0, symName: __ZNSt3__114basic_iostreamIcNS_11char_traitsIcEEEC2B7v160006EPNS_15basic_streambufIcS2_EE, symObjAddr: 0x1438, symBinAddr: 0x1000035C8, symSize: 0xAC }
  - { offsetInCU: 0x6ED1, offset: 0x1557B, size: 0x8, addend: 0x0, symName: __ZNSt3__115basic_stringbufIcNS_11char_traitsIcEENS_9allocatorIcEEEC1B7v160006Ej, symObjAddr: 0x14E4, symBinAddr: 0x100003674, symSize: 0x34 }
  - { offsetInCU: 0x6F0A, offset: 0x155B4, size: 0x8, addend: 0x0, symName: __ZNSt3__18ios_baseC2B7v160006Ev, symObjAddr: 0x1518, symBinAddr: 0x1000036A8, symSize: 0x24 }
  - { offsetInCU: 0x6F33, offset: 0x155DD, size: 0x8, addend: 0x0, symName: __ZNSt3__113basic_istreamIcNS_11char_traitsIcEEEC2B7v160006EPNS_15basic_streambufIcS2_EE, symObjAddr: 0x153C, symBinAddr: 0x1000036CC, symSize: 0x64 }
  - { offsetInCU: 0x6F79, offset: 0x15623, size: 0x8, addend: 0x0, symName: __ZNSt3__113basic_ostreamIcNS_11char_traitsIcEEEC2B7v160006Ev, symObjAddr: 0x15A0, symBinAddr: 0x100003730, symSize: 0x34 }
  - { offsetInCU: 0x6FB0, offset: 0x1565A, size: 0x8, addend: 0x0, symName: __ZNSt3__19basic_iosIcNS_11char_traitsIcEEE4initB7v160006EPNS_15basic_streambufIcS2_EE, symObjAddr: 0x15D4, symBinAddr: 0x100003764, symSize: 0x44 }
  - { offsetInCU: 0x6FE6, offset: 0x15690, size: 0x8, addend: 0x0, symName: __ZNSt3__115basic_stringbufIcNS_11char_traitsIcEENS_9allocatorIcEEEC2B7v160006Ej, symObjAddr: 0x1618, symBinAddr: 0x1000037A8, symSize: 0x60 }
  - { offsetInCU: 0x701E, offset: 0x156C8, size: 0x8, addend: 0x0, symName: __ZNSt3__112basic_stringIcNS_11char_traitsIcEENS_9allocatorIcEEEC1B7v160006Ev, symObjAddr: 0x1678, symBinAddr: 0x100003808, symSize: 0x2C }
  - { offsetInCU: 0x7048, offset: 0x156F2, size: 0x8, addend: 0x0, symName: __ZNSt3__112basic_stringIcNS_11char_traitsIcEENS_9allocatorIcEEEC2B7v160006Ev, symObjAddr: 0x16A4, symBinAddr: 0x100003834, symSize: 0x50 }
  - { offsetInCU: 0x7072, offset: 0x1571C, size: 0x8, addend: 0x0, symName: __ZNSt3__112basic_stringIcNS_11char_traitsIcEENS_9allocatorIcEEE14__default_initB7v160006Ev, symObjAddr: 0x16F4, symBinAddr: 0x100003884, symSize: 0x40 }
  - { offsetInCU: 0x7098, offset: 0x15742, size: 0x8, addend: 0x0, symName: __ZNKSt3__112basic_stringIcNS_11char_traitsIcEENS_9allocatorIcEEE4sizeB7v160006Ev, symObjAddr: 0x1734, symBinAddr: 0x1000038C4, symSize: 0x54 }
  - { offsetInCU: 0x70BE, offset: 0x15768, size: 0x8, addend: 0x0, symName: __ZNKSt3__112basic_stringIcNS_11char_traitsIcEENS_9allocatorIcEEE15__get_long_sizeB7v160006Ev, symObjAddr: 0x1788, symBinAddr: 0x100003918, symSize: 0x28 }
  - { offsetInCU: 0x70E4, offset: 0x1578E, size: 0x8, addend: 0x0, symName: __ZNKSt3__112basic_stringIcNS_11char_traitsIcEENS_9allocatorIcEEE16__get_short_sizeB7v160006Ev, symObjAddr: 0x17B0, symBinAddr: 0x100003940, symSize: 0x34 }
  - { offsetInCU: 0x45F9, offset: 0x19DDA, size: 0x8, addend: 0x0, symName: __ZNSt3__13hexB7v160006ERNS_8ios_baseE, symObjAddr: 0x4A0, symBinAddr: 0x100003DC0, symSize: 0x30 }
  - { offsetInCU: 0x66E8, offset: 0x1BEC9, size: 0x8, addend: 0x0, symName: __ZN4SLAM5LidarC2EPKcPNS_6MapperE, symObjAddr: 0x0, symBinAddr: 0x100003974, symSize: 0x64 }
  - { offsetInCU: 0x6730, offset: 0x1BF11, size: 0x8, addend: 0x0, symName: __ZN4SLAM5LidarC1EPKcPNS_6MapperE, symObjAddr: 0x64, symBinAddr: 0x1000039D8, symSize: 0x3C }
  - { offsetInCU: 0x6778, offset: 0x1BF59, size: 0x8, addend: 0x0, symName: __ZN4SLAM5LidarD2Ev, symObjAddr: 0xA0, symBinAddr: 0x100003A14, symSize: 0x58 }
  - { offsetInCU: 0x67A4, offset: 0x1BF85, size: 0x8, addend: 0x0, symName: __ZN4SLAM5Lidar8shutdownEv, symObjAddr: 0xF8, symBinAddr: 0x100003A6C, symSize: 0x7C }
  - { offsetInCU: 0x67CC, offset: 0x1BFAD, size: 0x8, addend: 0x0, symName: __ZN4SLAM5LidarD1Ev, symObjAddr: 0x180, symBinAddr: 0x100003AE8, symSize: 0x2C }
  - { offsetInCU: 0x67F8, offset: 0x1BFD9, size: 0x8, addend: 0x0, symName: __ZN4SLAM5Lidar5setupEv, symObjAddr: 0x1AC, symBinAddr: 0x100003B14, symSize: 0x26C }
  - { offsetInCU: 0x685C, offset: 0x1C03D, size: 0x8, addend: 0x0, symName: __ZNSt3__113basic_ostreamIcNS_11char_traitsIcEEElsB7v160006EPFRNS_8ios_baseES5_E, symObjAddr: 0x460, symBinAddr: 0x100003D80, symSize: 0x40 }
  - { offsetInCU: 0x6890, offset: 0x1C071, size: 0x8, addend: 0x0, symName: __ZN4SLAM5Lidar3runEv, symObjAddr: 0x554, symBinAddr: 0x100003DF0, symSize: 0x27C }
  - { offsetInCU: 0x6932, offset: 0x1C113, size: 0x8, addend: 0x0, symName: __ZN4SLAM5Lidar18checkRPLIDARHealthEv, symObjAddr: 0x7D0, symBinAddr: 0x10000406C, symSize: 0x114 }
  - { offsetInCU: 0x6969, offset: 0x1C14A, size: 0x8, addend: 0x0, symName: __ZNSt3__18ios_base4setfB7v160006Ejj, symObjAddr: 0x8E4, symBinAddr: 0x100004180, symSize: 0x5C }
  - { offsetInCU: 0x69BF, offset: 0x1C1A0, size: 0x8, addend: 0x0, symName: __ZNSt3__18ios_base6unsetfB7v160006Ej, symObjAddr: 0x940, symBinAddr: 0x1000041DC, symSize: 0x28 }
...
